target datalayout = "e-m:e-p270:32:32-p271:32:32-p272:64:64-i64:64-i128:128-f80:128-n8:16:32:64-S128"
target triple = "x86_64-pc-linux-gnu"

%"class.llvm::StringRef" = type { ptr, i64 }
%"class.llvm::StringLiteral" = type { %"class.llvm::StringRef" }
%"struct.__gnu_cxx::__ops::_Iter_equals_val" = type { ptr }

; Function Attrs: mustprogress nounwind uwtable
define linkonce_odr void @_ZSt19__iterator_categoryIPKN4llvm13StringLiteralEENSt15iterator_traitsIT_E17iterator_categoryERKS5_(ptr noundef nonnull align 8 dereferenceable(8) %0) #0 comdat {
  %2 = alloca ptr, align 8
  store ptr %0, ptr %2, align 8
  ret void
}

; Function Attrs: mustprogress nounwind uwtable
define linkonce_odr hidden void @_ZN9__gnu_cxx5__ops16_Iter_equals_valIKN4llvm9StringRefEEC2ERS4_(ptr noundef nonnull align 8 dereferenceable(8) %0, ptr noundef nonnull align 8 dereferenceable(16) %1) unnamed_addr #0 comdat align 2 {
  %3 = alloca ptr, align 8
  %4 = alloca ptr, align 8
  store ptr %0, ptr %3, align 8
  store ptr %1, ptr %4, align 8
  %5 = load ptr, ptr %3, align 8
  %6 = getelementptr inbounds nuw %"struct.__gnu_cxx::__ops::_Iter_equals_val", ptr %5, i32 0, i32 0
  %7 = load ptr, ptr %4, align 8
  store ptr %7, ptr %6, align 8
  ret void
}

; Function Attrs: mustprogress nounwind uwtable
define linkonce_odr noundef ptr @_ZSt3endIKN4llvm13StringLiteralELm18EEPT_RAT0__S3_(ptr noundef nonnull align 8 dereferenceable(288) %0) #0 comdat {
  %2 = alloca ptr, align 8
  store ptr %0, ptr %2, align 8
  %3 = load ptr, ptr %2, align 8
  %4 = getelementptr inbounds [18 x %"class.llvm::StringLiteral"], ptr %3, i64 0, i64 0
  %5 = getelementptr inbounds %"class.llvm::StringLiteral", ptr %4, i64 18
  ret ptr %5
}

; Function Attrs: mustprogress nounwind uwtable
define linkonce_odr noundef ptr @_ZSt5beginIKN4llvm13StringLiteralELm18EEPT_RAT0__S3_(ptr noundef nonnull align 8 dereferenceable(288) %0) #0 comdat {
  %2 = alloca ptr, align 8
  store ptr %0, ptr %2, align 8
  %3 = load ptr, ptr %2, align 8
  %4 = getelementptr inbounds [18 x %"class.llvm::StringLiteral"], ptr %3, i64 0, i64 0
  ret ptr %4
}

; Function Attrs: mustprogress nounwind uwtable
define linkonce_odr noundef ptr @_ZSt9__find_ifIPKN4llvm13StringLiteralEN9__gnu_cxx5__ops16_Iter_equals_valIKNS0_9StringRefEEEET_SA_SA_T0_(ptr noundef %0, ptr noundef %1, ptr %2) #0 comdat {
  %4 = alloca %"struct.__gnu_cxx::__ops::_Iter_equals_val", align 8
  %5 = alloca ptr, align 8
  %6 = alloca ptr, align 8
  %7 = alloca %"struct.__gnu_cxx::__ops::_Iter_equals_val", align 8
  %8 = getelementptr inbounds nuw %"struct.__gnu_cxx::__ops::_Iter_equals_val", ptr %4, i32 0, i32 0
  store ptr %2, ptr %8, align 8
  store ptr %0, ptr %5, align 8
  store ptr %1, ptr %6, align 8
  %9 = load ptr, ptr %5, align 8
  %10 = load ptr, ptr %6, align 8
  call void @llvm.memcpy.p0.p0.i64(ptr align 8 %7, ptr align 8 %4, i64 8, i1 false)
  call void @_ZSt19__iterator_categoryIPKN4llvm13StringLiteralEENSt15iterator_traitsIT_E17iterator_categoryERKS5_(ptr noundef nonnull align 8 dereferenceable(8) %5)
  %11 = getelementptr inbounds nuw %"struct.__gnu_cxx::__ops::_Iter_equals_val", ptr %7, i32 0, i32 0
  %12 = load ptr, ptr %11, align 8
  %13 = call noundef ptr @_ZSt9__find_ifIPKN4llvm13StringLiteralEN9__gnu_cxx5__ops16_Iter_equals_valIKNS0_9StringRefEEEET_SA_SA_T0_St26random_access_iterator_tag(ptr noundef %9, ptr noundef %10, ptr %12)
  ret ptr %13
}

; Function Attrs: mustprogress nounwind uwtable
define linkonce_odr hidden ptr @_ZN9__gnu_cxx5__ops17__iter_equals_valIKN4llvm9StringRefEEENS0_16_Iter_equals_valIT_EERS6_(ptr noundef nonnull align 8 dereferenceable(16) %0) #0 comdat {
  %2 = alloca %"struct.__gnu_cxx::__ops::_Iter_equals_val", align 8
  %3 = alloca ptr, align 8
  store ptr %0, ptr %3, align 8
  %4 = load ptr, ptr %3, align 8
  call void @_ZN9__gnu_cxx5__ops16_Iter_equals_valIKN4llvm9StringRefEEC2ERS4_(ptr noundef nonnull align 8 dereferenceable(8) %2, ptr noundef nonnull align 8 dereferenceable(16) %4)
  %5 = getelementptr inbounds nuw %"struct.__gnu_cxx::__ops::_Iter_equals_val", ptr %2, i32 0, i32 0
  %6 = load ptr, ptr %5, align 8
  ret ptr %6
}

; Function Attrs: mustprogress nounwind uwtable
define linkonce_odr hidden noundef ptr @_ZN4llvm10adl_detail8end_implIRA18_KNS_13StringLiteralEEEDTcl3endclsr3stdE7forwardIT_Efp_EEEOS6_(ptr noundef nonnull align 8 dereferenceable(288) %0) #0 comdat {
  %2 = alloca ptr, align 8
  store ptr %0, ptr %2, align 8
  %3 = load ptr, ptr %2, align 8
  %4 = call noundef ptr @_ZSt3endIKN4llvm13StringLiteralELm18EEPT_RAT0__S3_(ptr noundef nonnull align 8 dereferenceable(288) %3) #10
  ret ptr %4
}

; Function Attrs: mustprogress nounwind uwtable
define linkonce_odr hidden noundef ptr @_ZN4llvm10adl_detail10begin_implIRA18_KNS_13StringLiteralEEEDTcl5beginclsr3stdE7forwardIT_Efp_EEEOS6_(ptr noundef nonnull align 8 dereferenceable(288) %0) #0 comdat {
  %2 = alloca ptr, align 8
  store ptr %0, ptr %2, align 8
  %3 = load ptr, ptr %2, align 8
  %4 = call noundef ptr @_ZSt5beginIKN4llvm13StringLiteralELm18EEPT_RAT0__S3_(ptr noundef nonnull align 8 dereferenceable(288) %3) #10
  ret ptr %4
}

; Function Attrs: mustprogress nounwind uwtable
define linkonce_odr noundef ptr @_ZSt4findIPKN4llvm13StringLiteralENS0_9StringRefEET_S5_S5_RKT0_(ptr noundef %0, ptr noundef %1, ptr noundef nonnull align 8 dereferenceable(16) %2) #0 comdat {
  %4 = alloca ptr, align 8
  %5 = alloca ptr, align 8
  %6 = alloca ptr, align 8
  %7 = alloca %"struct.__gnu_cxx::__ops::_Iter_equals_val", align 8
  store ptr %0, ptr %4, align 8
  store ptr %1, ptr %5, align 8
  store ptr %2, ptr %6, align 8
  %8 = load ptr, ptr %4, align 8
  %9 = load ptr, ptr %5, align 8
  %10 = load ptr, ptr %6, align 8
  %11 = call ptr @_ZN9__gnu_cxx5__ops17__iter_equals_valIKN4llvm9StringRefEEENS0_16_Iter_equals_valIT_EERS6_(ptr noundef nonnull align 8 dereferenceable(16) %10)
  %12 = getelementptr inbounds nuw %"struct.__gnu_cxx::__ops::_Iter_equals_val", ptr %7, i32 0, i32 0
  store ptr %11, ptr %12, align 8
  %13 = getelementptr inbounds nuw %"struct.__gnu_cxx::__ops::_Iter_equals_val", ptr %7, i32 0, i32 0
  %14 = load ptr, ptr %13, align 8
  %15 = call noundef ptr @_ZSt9__find_ifIPKN4llvm13StringLiteralEN9__gnu_cxx5__ops16_Iter_equals_valIKNS0_9StringRefEEEET_SA_SA_T0_(ptr noundef %8, ptr noundef %9, ptr %14)
  ret ptr %15
}

; Function Attrs: mustprogress nounwind uwtable
define linkonce_odr hidden noundef ptr @_ZN4llvm7adl_endIRA18_KNS_13StringLiteralEEEDTclsr10adl_detailE8end_implclsr3stdE7forwardIT_Efp_EEEOS5_(ptr noundef nonnull align 8 dereferenceable(288) %0) #0 comdat {
  %2 = alloca ptr, align 8
  store ptr %0, ptr %2, align 8
  %3 = load ptr, ptr %2, align 8
  %4 = call noundef ptr @_ZN4llvm10adl_detail8end_implIRA18_KNS_13StringLiteralEEEDTcl3endclsr3stdE7forwardIT_Efp_EEEOS6_(ptr noundef nonnull align 8 dereferenceable(288) %3)
  ret ptr %4
}

; Function Attrs: mustprogress nounwind uwtable
define linkonce_odr hidden noundef ptr @_ZN4llvm9adl_beginIRA18_KNS_13StringLiteralEEEDTclsr10adl_detailE10begin_implclsr3stdE7forwardIT_Efp_EEEOS5_(ptr noundef nonnull align 8 dereferenceable(288) %0) #0 comdat {
  %2 = alloca ptr, align 8
  store ptr %0, ptr %2, align 8
  %3 = load ptr, ptr %2, align 8
  %4 = call noundef ptr @_ZN4llvm10adl_detail10begin_implIRA18_KNS_13StringLiteralEEEDTcl5beginclsr3stdE7forwardIT_Efp_EEEOS6_(ptr noundef nonnull align 8 dereferenceable(288) %3)
  ret ptr %4
}

; Function Attrs: mustprogress nounwind uwtable
define linkonce_odr noundef zeroext i1 @_ZN4llvm12is_containedIRA18_KNS_13StringLiteralENS_9StringRefEEEbOT_RKT0_(ptr noundef nonnull align 8 dereferenceable(288) %0, ptr noundef nonnull align 8 dereferenceable(16) %1) #0 comdat {
  %3 = alloca ptr, align 8
  %4 = alloca ptr, align 8
  store ptr %0, ptr %3, align 8
  store ptr %1, ptr %4, align 8
  %5 = load ptr, ptr %3, align 8
  %6 = call noundef ptr @_ZN4llvm9adl_beginIRA18_KNS_13StringLiteralEEEDTclsr10adl_detailE10begin_implclsr3stdE7forwardIT_Efp_EEEOS5_(ptr noundef nonnull align 8 dereferenceable(288) %5)
  %7 = load ptr, ptr %3, align 8
  %8 = call noundef ptr @_ZN4llvm7adl_endIRA18_KNS_13StringLiteralEEEDTclsr10adl_detailE8end_implclsr3stdE7forwardIT_Efp_EEEOS5_(ptr noundef nonnull align 8 dereferenceable(288) %7)
  %9 = load ptr, ptr %4, align 8
  %10 = call noundef ptr @_ZSt4findIPKN4llvm13StringLiteralENS0_9StringRefEET_S5_S5_RKT0_(ptr noundef %6, ptr noundef %8, ptr noundef nonnull align 8 dereferenceable(16) %9)
  %11 = load ptr, ptr %3, align 8
  %12 = call noundef ptr @_ZN4llvm7adl_endIRA18_KNS_13StringLiteralEEEDTclsr10adl_detailE8end_implclsr3stdE7forwardIT_Efp_EEEOS5_(ptr noundef nonnull align 8 dereferenceable(288) %11)
  %13 = icmp ne ptr %10, %12
  ret i1 %13
}

; Function Attrs: mustprogress nounwind uwtable
define hidden noundef zeroext i1 @_ZNK5clang7targets14MipsTargetInfo14isValidCPUNameEN4llvm9StringRefE(ptr noundef nonnull align 8 dereferenceable(584) %0, ptr %1, i64 %2) unnamed_addr #0 align 2 {
  %4 = alloca %"class.llvm::StringRef", align 8
  %5 = alloca ptr, align 8
  %6 = getelementptr inbounds nuw { ptr, i64 }, ptr %4, i32 0, i32 0
  store ptr %1, ptr %6, align 8
  %7 = getelementptr inbounds nuw { ptr, i64 }, ptr %4, i32 0, i32 1
  store i64 %2, ptr %7, align 8
  store ptr %0, ptr %5, align 8
  %8 = call noundef zeroext i1 @_ZN4llvm12is_containedIRA18_KNS_13StringLiteralENS_9StringRefEEEbOT_RKT0_(ptr noundef nonnull align 8 dereferenceable(288) @_ZL13ValidCPUNames, ptr noundef nonnull align 8 dereferenceable(16) %4)
  ret i1 %8
}