; Function Attrs: mustprogress nounwind uwtable
define hidden noundef zeroext i1 @_ZNK5clang7targets14MipsTargetInfo14isValidCPUNameEN4llvm9StringRefE(ptr nocapture nonnull readnone align 8 %0, ptr %1, i64 %2) unnamed_addr #0 align 2 {
  %4 = alloca %"class.llvm::StringRef", align 8
  store ptr %1, ptr %4, align 8
  %5 = getelementptr inbounds nuw i8, ptr %4, i64 8
  store i64 %2, ptr %5, align 8
  %6 = call noundef ptr @_ZSt9__find_ifIPKN4llvm13StringLiteralEN9__gnu_cxx5__ops16_Iter_equals_valIKNS0_9StringRefEEEET_SA_SA_T0_St26random_access_iterator_tag(ptr noundef nonnull @_ZL13ValidCPUNames, ptr noundef nonnull getelementptr inbounds (i8, ptr @_ZL13ValidCPUNames, i64 288), ptr nonnull %4)
  %7 = icmp ne ptr %6, getelementptr inbounds (i8, ptr @_ZL13ValidCPUNames, i64 288)
  ret i1 %7
}